target datalayout = "e-m:e-p270:32:32-p271:32:32-p272:64:64-i64:64-i128:128-f80:128-n8:16:32:64-S128"
target triple = "x86_64-pc-linux-gnu"

%struct.expert_field = type { i32, i32 }
%struct.MessageHeader = type { [4 x i8], %struct.Version, i8, i8, i32, i32, i32, ptr }
%struct.Version = type { i8, i8 }

@hf_GIAS_Library_get_manager_manager_type = internal global i32 0, align 4
@hf_GIAS_AccessCriteria_userID = internal global i32 0, align 4
@hf_GIAS_AccessCriteria_password = internal global i32 0, align 4
@hf_GIAS_AccessCriteria_licenseKey = internal global i32 0, align 4
@ei_gias_unknown_giop_msg = internal global %struct.expert_field zeroinitializer, align 4
@ei_gias_unknown_exception = internal global %struct.expert_field zeroinitializer, align 4
@ett_giop_struct = internal global i32 0, align 4
@boundary = internal global i32 12, align 4
@.str.826 = private unnamed_addr constant [21 x i8] c"Unknown exception %d\00", align 1
@.str.827 = private unnamed_addr constant [24 x i8] c"Unknown GIOP message %d\00", align 1
@.str.964 = private unnamed_addr constant [27 x i8] c"struct GIAS_AccessCriteria\00", align 1

; Function Attrs: null_pointer_is_valid sspstrong uwtable
define internal void @decode_GIAS_AccessCriteria_st(ptr noundef %0, ptr noundef %1, ptr noundef %2, ptr noundef %3, ptr noundef %4, ptr noundef %5, ptr noundef %6, i1 noundef zeroext %7) #0 {
  %9 = alloca ptr, align 8
  %10 = alloca ptr, align 8
  %11 = alloca ptr, align 8
  %12 = alloca ptr, align 8
  %13 = alloca ptr, align 8
  %14 = alloca ptr, align 8
  %15 = alloca ptr, align 8
  %16 = alloca i8, align 1
  store ptr %0, ptr %9, align 8
  store ptr %1, ptr %10, align 8
  store ptr %2, ptr %11, align 8
  store ptr %3, ptr %12, align 8
  store ptr %4, ptr %13, align 8
  store ptr %5, ptr %14, align 8
  store ptr %6, ptr %15, align 8
  %17 = zext i1 %7 to i8
  store i8 %17, ptr %16, align 1
  %18 = load ptr, ptr %11, align 8
  %19 = load ptr, ptr %9, align 8
  %20 = load ptr, ptr %13, align 8
  %21 = load i8, ptr %16, align 1, !range !6, !noundef !7
  %22 = trunc i8 %21 to i1
  %23 = load i32, ptr @boundary, align 4
  %24 = load i32, ptr @hf_GIAS_AccessCriteria_userID, align 4
  call void @giop_add_CDR_string(ptr noundef %18, ptr noundef %19, ptr noundef %20, i1 noundef zeroext %22, i32 noundef %23, i32 noundef %24)
  %25 = load ptr, ptr %11, align 8
  %26 = load ptr, ptr %9, align 8
  %27 = load ptr, ptr %13, align 8
  %28 = load i8, ptr %16, align 1, !range !6, !noundef !7
  %29 = trunc i8 %28 to i1
  %30 = load i32, ptr @boundary, align 4
  %31 = load i32, ptr @hf_GIAS_AccessCriteria_password, align 4
  call void @giop_add_CDR_string(ptr noundef %25, ptr noundef %26, ptr noundef %27, i1 noundef zeroext %29, i32 noundef %30, i32 noundef %31)
  %32 = load ptr, ptr %11, align 8
  %33 = load ptr, ptr %9, align 8
  %34 = load ptr, ptr %13, align 8
  %35 = load i8, ptr %16, align 1, !range !6, !noundef !7
  %36 = trunc i8 %35 to i1
  %37 = load i32, ptr @boundary, align 4
  %38 = load i32, ptr @hf_GIAS_AccessCriteria_licenseKey, align 4
  call void @giop_add_CDR_string(ptr noundef %32, ptr noundef %33, ptr noundef %34, i1 noundef zeroext %36, i32 noundef %37, i32 noundef %38)
  ret void
}

; Function Attrs: null_pointer_is_valid sspstrong uwtable
define internal void @decode_GIAS_Library_get_manager(ptr noundef %0, ptr noundef %1, ptr noundef %2, ptr noundef %3, ptr noundef %4, ptr noundef %5, ptr noundef %6, i1 noundef zeroext %7) #0 {
  %9 = alloca ptr, align 8
  %10 = alloca ptr, align 8
  %11 = alloca ptr, align 8
  %12 = alloca ptr, align 8
  %13 = alloca ptr, align 8
  %14 = alloca ptr, align 8
  %15 = alloca ptr, align 8
  %16 = alloca i8, align 1
  %17 = alloca ptr, align 8
  store ptr %0, ptr %9, align 8
  store ptr %1, ptr %10, align 8
  store ptr %2, ptr %11, align 8
  store ptr %3, ptr %12, align 8
  store ptr %4, ptr %13, align 8
  store ptr %5, ptr %14, align 8
  store ptr %6, ptr %15, align 8
  %18 = zext i1 %7 to i8
  store i8 %18, ptr %16, align 1
  %19 = load ptr, ptr %14, align 8
  %20 = getelementptr inbounds nuw %struct.MessageHeader, ptr %19, i32 0, i32 3
  %21 = load i8, ptr %20, align 1
  %22 = zext i8 %21 to i32
  switch i32 %22, label %66 [
    i32 0, label %23
    i32 1, label %46
  ]

23:                                               ; preds = %8
  %24 = load ptr, ptr %11, align 8
  %25 = load ptr, ptr %9, align 8
  %26 = load ptr, ptr %13, align 8
  %27 = load i8, ptr %16, align 1, !range !6, !noundef !7
  %28 = trunc i8 %27 to i1
  %29 = load i32, ptr @boundary, align 4
  %30 = load i32, ptr @hf_GIAS_Library_get_manager_manager_type, align 4
  call void @giop_add_CDR_string(ptr noundef %24, ptr noundef %25, ptr noundef %26, i1 noundef zeroext %28, i32 noundef %29, i32 noundef %30)
  call void @llvm.lifetime.start.p0(i64 8, ptr %17) #6
  %31 = load ptr, ptr %11, align 8
  %32 = load ptr, ptr %9, align 8
  %33 = load ptr, ptr %13, align 8
  %34 = load i32, ptr %33, align 4
  %35 = load i32, ptr @ett_giop_struct, align 4
  %36 = call ptr @proto_tree_add_subtree(ptr noundef %31, ptr noundef %32, i32 noundef %34, i32 noundef -1, i32 noundef %35, ptr noundef null, ptr noundef @.str.964)
  store ptr %36, ptr %17, align 8
  %37 = load ptr, ptr %9, align 8
  %38 = load ptr, ptr %10, align 8
  %39 = load ptr, ptr %17, align 8
  %40 = load ptr, ptr %12, align 8
  %41 = load ptr, ptr %13, align 8
  %42 = load ptr, ptr %14, align 8
  %43 = load ptr, ptr %15, align 8
  %44 = load i8, ptr %16, align 1, !range !6, !noundef !7
  %45 = trunc i8 %44 to i1
  call void @decode_GIAS_AccessCriteria_st(ptr noundef %37, ptr noundef %38, ptr noundef %39, ptr noundef %40, ptr noundef %41, ptr noundef %42, ptr noundef %43, i1 noundef zeroext %45)
  call void @llvm.lifetime.end.p0(i64 8, ptr %17) #6
  br label %74

46:                                               ; preds = %8
  %47 = load ptr, ptr %14, align 8
  %48 = getelementptr inbounds nuw %struct.MessageHeader, ptr %47, i32 0, i32 6
  %49 = load i32, ptr %48, align 8
  switch i32 %49, label %58 [
    i32 0, label %50
    i32 1, label %65
  ]

50:                                               ; preds = %46
  %51 = load ptr, ptr %9, align 8
  %52 = load ptr, ptr %10, align 8
  %53 = load ptr, ptr %11, align 8
  %54 = load ptr, ptr %13, align 8
  %55 = load i8, ptr %16, align 1, !range !6, !noundef !7
  %56 = trunc i8 %55 to i1
  %57 = load i32, ptr @boundary, align 4
  call void @get_CDR_object(ptr noundef %51, ptr noundef %52, ptr noundef %53, ptr noundef %54, i1 noundef zeroext %56, i32 noundef %57)
  br label %65

58:                                               ; preds = %46
  %59 = load ptr, ptr %10, align 8
  %60 = load ptr, ptr %12, align 8
  %61 = load ptr, ptr %14, align 8
  %62 = getelementptr inbounds nuw %struct.MessageHeader, ptr %61, i32 0, i32 6
  %63 = load i32, ptr %62, align 8
  %64 = call ptr (ptr, ptr, ptr, ptr, ...) @expert_add_info_format(ptr noundef %59, ptr noundef %60, ptr noundef @ei_gias_unknown_exception, ptr noundef @.str.826, i32 noundef %63)
  br label %65

65:                                               ; preds = %58, %46, %50
  br label %74

66:                                               ; preds = %8
  %67 = load ptr, ptr %10, align 8
  %68 = load ptr, ptr %12, align 8
  %69 = load ptr, ptr %14, align 8
  %70 = getelementptr inbounds nuw %struct.MessageHeader, ptr %69, i32 0, i32 3
  %71 = load i8, ptr %70, align 1
  %72 = zext i8 %71 to i32
  %73 = call ptr (ptr, ptr, ptr, ptr, ...) @expert_add_info_format(ptr noundef %67, ptr noundef %68, ptr noundef @ei_gias_unknown_giop_msg, ptr noundef @.str.827, i32 noundef %72)
  br label %74

74:                                               ; preds = %66, %65, %23
  ret void
}