; Function Attrs: null_pointer_is_valid sspstrong uwtable
define internal fastcc void @decode_GIAS_Library_get_manager(ptr noundef %0, ptr noundef %1, ptr noundef %2, ptr noundef %3, ptr noundef %4, ptr noundef readonly captures(none) %5, i1 noundef zeroext %6) unnamed_addr #0 {
  %8 = getelementptr inbounds nuw i8, ptr %5, i64 7
  %9 = load i8, ptr %8, align 1
  switch i8 %9, label %24 [
    i8 0, label %10
    i8 1, label %18
  ]

10:                                               ; preds = %7
  %11 = load i32, ptr @hf_GIAS_Library_get_manager_manager_type, align 4
  tail call void @giop_add_CDR_string(ptr noundef %2, ptr noundef %0, ptr noundef %4, i1 noundef zeroext %6, i32 noundef 12, i32 noundef %11)
  %12 = load i32, ptr %4, align 4
  %13 = load i32, ptr @ett_giop_struct, align 4
  %14 = tail call ptr @proto_tree_add_subtree(ptr noundef %2, ptr noundef %0, i32 noundef %12, i32 noundef -1, i32 noundef %13, ptr noundef null, ptr noundef nonnull @.str.964)
  %15 = load i32, ptr @hf_GIAS_AccessCriteria_userID, align 4
  tail call void @giop_add_CDR_string(ptr noundef %14, ptr noundef %0, ptr noundef %4, i1 noundef zeroext %6, i32 noundef 12, i32 noundef %15)
  %16 = load i32, ptr @hf_GIAS_AccessCriteria_password, align 4
  tail call void @giop_add_CDR_string(ptr noundef %14, ptr noundef %0, ptr noundef %4, i1 noundef zeroext %6, i32 noundef 12, i32 noundef %16)
  %17 = load i32, ptr @hf_GIAS_AccessCriteria_licenseKey, align 4
  tail call void @giop_add_CDR_string(ptr noundef %14, ptr noundef %0, ptr noundef %4, i1 noundef zeroext %6, i32 noundef 12, i32 noundef %17)
  br label %27

18:                                               ; preds = %7
  %19 = getelementptr inbounds nuw i8, ptr %5, i64 16
  %20 = load i32, ptr %19, align 8
  switch i32 %20, label %22 [
    i32 0, label %21
    i32 1, label %27
  ]

21:                                               ; preds = %18
  tail call void @get_CDR_object(ptr noundef %0, ptr noundef %1, ptr noundef %2, ptr noundef %4, i1 noundef zeroext %6, i32 noundef 12)
  br label %27

22:                                               ; preds = %18
  %23 = tail call ptr (ptr, ptr, ptr, ptr, ...) @expert_add_info_format(ptr noundef %1, ptr noundef %3, ptr noundef nonnull @ei_gias_unknown_exception, ptr noundef nonnull @.str.826, i32 noundef %20)
  br label %27

24:                                               ; preds = %7
  %25 = zext i8 %9 to i32
  %26 = tail call ptr (ptr, ptr, ptr, ptr, ...) @expert_add_info_format(ptr noundef %1, ptr noundef %3, ptr noundef nonnull @ei_gias_unknown_giop_msg, ptr noundef nonnull @.str.827, i32 noundef %25)
  br label %27

27:                                               ; preds = %18, %21, %22, %24, %10
  ret void
}